target datalayout = "e-m:e-p270:32:32-p271:32:32-p272:64:64-i64:64-i128:128-f80:128-n8:16:32:64-S128"
target triple = "x86_64-pc-linux-gnu"

%struct.expert_field = type { i32, i32 }
%struct._packet_info = type { ptr, ptr, i32, i32, %struct.nstime_t, %struct.nstime_t, %struct.nstime_t, i8, ptr, ptr, ptr, ptr, %struct._address, %struct._address, %struct._address, %struct._address, %struct._address, %struct._address, i32, ptr, i8, [3 x i8], %struct.anon, i32, i32, i32, i32, ptr, i8, ptr, ptr, i16, i16, i32, i32, i16, i32, i32, ptr, ptr, ptr, i8, i8, i16, i16, i16, i32, i16, i16, ptr, ptr, ptr, ptr, ptr, i32, i32 }
%struct.nstime_t = type { i64, i32 }
%struct._address = type { i32, i32, ptr, ptr }
%struct.anon = type { i8, [3 x i8] }

@hf_opcua_extobj_mask = internal global i32 0, align 4
@ei_nesting_depth = internal global %struct.expert_field zeroinitializer, align 4
@proto_opcua = external global i32, align 4
@parseExtensionObject.extobj_mask = internal constant [3 x ptr] [ptr @hf_opcua_extobj_mask_binbodyflag, ptr @hf_opcua_extobj_mask_xmlbodyflag, ptr null], align 16
@ett_opcua_extensionobject = internal global i32 0, align 4
@.str.214 = private unnamed_addr constant [20 x i8] c"%s: ExtensionObject\00", align 1
@.str.215 = private unnamed_addr constant [7 x i8] c"TypeId\00", align 1
@ett_opcua_extensionobject_encodingmask = internal global i32 0, align 4

; Function Attrs: null_pointer_is_valid sspstrong uwtable
define hidden i32 @getExtensionObjectType(ptr noundef %0, ptr noundef %1) #0 {
  %3 = alloca ptr, align 8
  %4 = alloca ptr, align 8
  %5 = alloca i32, align 4
  %6 = alloca i8, align 1
  %7 = alloca i32, align 4
  store ptr %0, ptr %3, align 8
  store ptr %1, ptr %4, align 8
  call void @llvm.lifetime.start.p0(i64 4, ptr %5) #3
  %8 = load ptr, ptr %4, align 8
  %9 = load i32, ptr %8, align 4
  store i32 %9, ptr %5, align 4
  call void @llvm.lifetime.start.p0(i64 1, ptr %6) #3
  call void @llvm.lifetime.start.p0(i64 4, ptr %7) #3
  store i32 0, ptr %7, align 4
  %10 = load ptr, ptr %3, align 8
  %11 = load i32, ptr %5, align 4
  %12 = call zeroext i8 @tvb_get_uint8(ptr noundef %10, i32 noundef %11)
  store i8 %12, ptr %6, align 1
  %13 = load i32, ptr %5, align 4
  %14 = add i32 %13, 1
  store i32 %14, ptr %5, align 4
  %15 = load i8, ptr %6, align 1
  %16 = zext i8 %15 to i32
  switch i32 %16, label %36 [
    i32 0, label %17
    i32 1, label %22
    i32 2, label %29
    i32 3, label %35
    i32 4, label %35
    i32 5, label %35
    i32 6, label %35
  ]

17:                                               ; preds = %2
  %18 = load ptr, ptr %3, align 8
  %19 = load i32, ptr %5, align 4
  %20 = call zeroext i8 @tvb_get_uint8(ptr noundef %18, i32 noundef %19)
  %21 = zext i8 %20 to i32
  store i32 %21, ptr %7, align 4
  br label %36

22:                                               ; preds = %2
  %23 = load i32, ptr %5, align 4
  %24 = add i32 %23, 1
  store i32 %24, ptr %5, align 4
  %25 = load ptr, ptr %3, align 8
  %26 = load i32, ptr %5, align 4
  %27 = call zeroext i16 @tvb_get_letohs(ptr noundef %25, i32 noundef %26)
  %28 = zext i16 %27 to i32
  store i32 %28, ptr %7, align 4
  br label %36

29:                                               ; preds = %2
  %30 = load i32, ptr %5, align 4
  %31 = add i32 %30, 2
  store i32 %31, ptr %5, align 4
  %32 = load ptr, ptr %3, align 8
  %33 = load i32, ptr %5, align 4
  %34 = call i32 @tvb_get_letohl(ptr noundef %32, i32 noundef %33)
  store i32 %34, ptr %7, align 4
  br label %36

35:                                               ; preds = %2, %2, %2, %2
  br label %36

36:                                               ; preds = %2, %35, %29, %22, %17
  %37 = load i32, ptr %7, align 4
  call void @llvm.lifetime.end.p0(i64 4, ptr %7) #3
  call void @llvm.lifetime.end.p0(i64 1, ptr %6) #3
  call void @llvm.lifetime.end.p0(i64 4, ptr %5) #3
  ret i32 %37
}

; Function Attrs: null_pointer_is_valid sspstrong uwtable
define hidden void @parseExtensionObject(ptr noundef %0, ptr noundef %1, ptr noundef %2, ptr noundef %3, ptr noundef %4) #0 {
  %6 = alloca ptr, align 8
  %7 = alloca ptr, align 8
  %8 = alloca ptr, align 8
  %9 = alloca ptr, align 8
  %10 = alloca ptr, align 8
  %11 = alloca i32, align 4
  %12 = alloca i8, align 1
  %13 = alloca i32, align 4
  %14 = alloca ptr, align 8
  %15 = alloca ptr, align 8
  %16 = alloca i32, align 4
  %17 = alloca i32, align 4
  store ptr %0, ptr %6, align 8
  store ptr %1, ptr %7, align 8
  store ptr %2, ptr %8, align 8
  store ptr %3, ptr %9, align 8
  store ptr %4, ptr %10, align 8
  call void @llvm.lifetime.start.p0(i64 4, ptr %11) #3
  %18 = load ptr, ptr %9, align 8
  %19 = load i32, ptr %18, align 4
  store i32 %19, ptr %11, align 4
  call void @llvm.lifetime.start.p0(i64 1, ptr %12) #3
  call void @llvm.lifetime.start.p0(i64 4, ptr %13) #3
  call void @llvm.lifetime.start.p0(i64 8, ptr %14) #3
  call void @llvm.lifetime.start.p0(i64 8, ptr %15) #3
  call void @llvm.lifetime.start.p0(i64 4, ptr %16) #3
  %20 = load ptr, ptr %6, align 8
  %21 = load ptr, ptr %7, align 8
  %22 = load ptr, ptr %9, align 8
  %23 = load i32, ptr %22, align 4
  %24 = load i32, ptr @ett_opcua_extensionobject, align 4
  %25 = load ptr, ptr %10, align 8
  %26 = call ptr (ptr, ptr, i32, i32, i32, ptr, ptr, ...) @proto_tree_add_subtree_format(ptr noundef %20, ptr noundef %21, i32 noundef %23, i32 noundef -1, i32 noundef %24, ptr noundef %15, ptr noundef @.str.214, ptr noundef %25)
  store ptr %26, ptr %14, align 8
  %27 = load ptr, ptr %8, align 8
  %28 = getelementptr inbounds nuw %struct._packet_info, ptr %27, i32 0, i32 51
  %29 = load ptr, ptr %28, align 8
  %30 = load ptr, ptr %8, align 8
  %31 = load i32, ptr @proto_opcua, align 4
  %32 = call ptr @p_get_proto_data(ptr noundef %29, ptr noundef %30, i32 noundef %31, i32 noundef 0)
  %33 = ptrtoint ptr %32 to i64
  %34 = trunc i64 %33 to i32
  store i32 %34, ptr %16, align 4
  %35 = load i32, ptr %16, align 4
  %36 = icmp uge i32 %35, 100
  br i1 %36, label %37, label %41

37:                                               ; preds = %5
  %38 = load ptr, ptr %8, align 8
  %39 = load ptr, ptr %15, align 8
  %40 = call ptr @expert_add_info(ptr noundef %38, ptr noundef %39, ptr noundef @ei_nesting_depth)
  store i32 1, ptr %17, align 4
  br label %93

41:                                               ; preds = %5
  %42 = load i32, ptr %16, align 4
  %43 = add i32 %42, 1
  store i32 %43, ptr %16, align 4
  %44 = load ptr, ptr %8, align 8
  %45 = getelementptr inbounds nuw %struct._packet_info, ptr %44, i32 0, i32 51
  %46 = load ptr, ptr %45, align 8
  %47 = load ptr, ptr %8, align 8
  %48 = load i32, ptr @proto_opcua, align 4
  %49 = load i32, ptr %16, align 4
  %50 = zext i32 %49 to i64
  %51 = inttoptr i64 %50 to ptr
  call void @p_add_proto_data(ptr noundef %46, ptr noundef %47, i32 noundef %48, i32 noundef 0, ptr noundef %51)
  %52 = load ptr, ptr %7, align 8
  %53 = call i32 @getExtensionObjectType(ptr noundef %52, ptr noundef %11)
  store i32 %53, ptr %13, align 4
  %54 = load ptr, ptr %14, align 8
  %55 = load ptr, ptr %7, align 8
  %56 = load ptr, ptr %8, align 8
  call void @parseNodeId(ptr noundef %54, ptr noundef %55, ptr noundef %56, ptr noundef %11, ptr noundef @.str.215)
  %57 = load ptr, ptr %7, align 8
  %58 = load i32, ptr %11, align 4
  %59 = call zeroext i8 @tvb_get_uint8(ptr noundef %57, i32 noundef %58)
  store i8 %59, ptr %12, align 1
  %60 = load ptr, ptr %14, align 8
  %61 = load ptr, ptr %7, align 8
  %62 = load i32, ptr %11, align 4
  %63 = load i32, ptr @hf_opcua_extobj_mask, align 4
  %64 = load i32, ptr @ett_opcua_extensionobject_encodingmask, align 4
  %65 = call ptr @proto_tree_add_bitmask(ptr noundef %60, ptr noundef %61, i32 noundef %62, i32 noundef %63, i32 noundef %64, ptr noundef @parseExtensionObject.extobj_mask, i32 noundef -2147483648)
  %66 = load i32, ptr %11, align 4
  %67 = add i32 %66, 1
  store i32 %67, ptr %11, align 4
  %68 = load i8, ptr %12, align 1
  %69 = zext i8 %68 to i32
  %70 = and i32 %69, 1
  %71 = icmp ne i32 %70, 0
  br i1 %71, label %72, label %77

72:                                               ; preds = %41
  %73 = load ptr, ptr %14, align 8
  %74 = load ptr, ptr %7, align 8
  %75 = load ptr, ptr %8, align 8
  %76 = load i32, ptr %13, align 4
  call void @dispatchExtensionObjectType(ptr noundef %73, ptr noundef %74, ptr noundef %75, ptr noundef %11, i32 noundef %76)
  br label %77

77:                                               ; preds = %72, %41
  %78 = load ptr, ptr %15, align 8
  %79 = load ptr, ptr %7, align 8
  %80 = load i32, ptr %11, align 4
  call void @proto_item_set_end(ptr noundef %78, ptr noundef %79, i32 noundef %80)
  %81 = load i32, ptr %11, align 4
  %82 = load ptr, ptr %9, align 8
  store i32 %81, ptr %82, align 4
  %83 = load i32, ptr %16, align 4
  %84 = add i32 %83, -1
  store i32 %84, ptr %16, align 4
  %85 = load ptr, ptr %8, align 8
  %86 = getelementptr inbounds nuw %struct._packet_info, ptr %85, i32 0, i32 51
  %87 = load ptr, ptr %86, align 8
  %88 = load ptr, ptr %8, align 8
  %89 = load i32, ptr @proto_opcua, align 4
  %90 = load i32, ptr %16, align 4
  %91 = zext i32 %90 to i64
  %92 = inttoptr i64 %91 to ptr
  call void @p_add_proto_data(ptr noundef %87, ptr noundef %88, i32 noundef %89, i32 noundef 0, ptr noundef %92)
  store i32 0, ptr %17, align 4
  br label %93

93:                                               ; preds = %77, %37
  call void @llvm.lifetime.end.p0(i64 4, ptr %16) #3
  call void @llvm.lifetime.end.p0(i64 8, ptr %15) #3
  call void @llvm.lifetime.end.p0(i64 8, ptr %14) #3
  call void @llvm.lifetime.end.p0(i64 4, ptr %13) #3
  call void @llvm.lifetime.end.p0(i64 1, ptr %12) #3
  call void @llvm.lifetime.end.p0(i64 4, ptr %11) #3
  %94 = load i32, ptr %17, align 4
  switch i32 %94, label %96 [
    i32 0, label %95
    i32 1, label %95
  ]

95:                                               ; preds = %93, %93
  ret void

96:                                               ; preds = %93
  unreachable
}