; Function Attrs: null_pointer_is_valid sspstrong uwtable
define hidden void @parseExtensionObject(ptr noundef %0, ptr noundef %1, ptr noundef %2, ptr noundef captures(none) %3, ptr noundef %4) #0 {
  %6 = alloca i32, align 4
  %7 = alloca ptr, align 8
  call void @llvm.lifetime.start.p0(i64 4, ptr nonnull %6) #4
  %8 = load i32, ptr %3, align 4
  store i32 %8, ptr %6, align 4
  call void @llvm.lifetime.start.p0(i64 8, ptr nonnull %7) #4
  %9 = load i32, ptr @ett_opcua_extensionobject, align 4
  %10 = call ptr (ptr, ptr, i32, i32, i32, ptr, ptr, ...) @proto_tree_add_subtree_format(ptr noundef %0, ptr noundef %1, i32 noundef %8, i32 noundef -1, i32 noundef %9, ptr noundef nonnull %7, ptr noundef nonnull @.str.214, ptr noundef %4)
  %11 = getelementptr inbounds nuw i8, ptr %2, i64 408
  %12 = load ptr, ptr %11, align 8
  %13 = load i32, ptr @proto_opcua, align 4
  %14 = call ptr @p_get_proto_data(ptr noundef %12, ptr noundef %2, i32 noundef %13, i32 noundef 0)
  %15 = ptrtoint ptr %14 to i64
  %16 = trunc i64 %15 to i32
  %17 = icmp ugt i32 %16, 99
  br i1 %17, label %18, label %21

18:                                               ; preds = %5
  %19 = load ptr, ptr %7, align 8
  %20 = call ptr @expert_add_info(ptr noundef %2, ptr noundef %19, ptr noundef nonnull @ei_nesting_depth)
  br label %55

21:                                               ; preds = %5
  %22 = add nuw nsw i64 %15, 1
  %23 = load ptr, ptr %11, align 8
  %24 = load i32, ptr @proto_opcua, align 4
  %25 = and i64 %22, 255
  %26 = inttoptr i64 %25 to ptr
  call void @p_add_proto_data(ptr noundef %23, ptr noundef %2, i32 noundef %24, i32 noundef 0, ptr noundef %26)
  %27 = call zeroext i8 @tvb_get_uint8(ptr noundef %1, i32 noundef %8)
  switch i8 %27, label %getExtensionObjectType.exit [
    i8 0, label %28
    i8 1, label %32
    i8 2, label %36
  ]

28:                                               ; preds = %21
  %29 = add i32 %8, 1
  %30 = call zeroext i8 @tvb_get_uint8(ptr noundef %1, i32 noundef %29)
  %31 = zext i8 %30 to i32
  br label %getExtensionObjectType.exit

32:                                               ; preds = %21
  %33 = add i32 %8, 2
  %34 = call zeroext i16 @tvb_get_letohs(ptr noundef %1, i32 noundef %33)
  %35 = zext i16 %34 to i32
  br label %getExtensionObjectType.exit

36:                                               ; preds = %21
  %37 = add i32 %8, 3
  %38 = call i32 @tvb_get_letohl(ptr noundef %1, i32 noundef %37)
  br label %getExtensionObjectType.exit

getExtensionObjectType.exit:                      ; preds = %21, %28, %32, %36
  %.0.i = phi i32 [ 0, %21 ], [ %38, %36 ], [ %35, %32 ], [ %31, %28 ]
  call void @parseNodeId(ptr noundef %10, ptr noundef %1, ptr noundef %2, ptr noundef nonnull %6, ptr noundef nonnull @.str.215)
  %39 = load i32, ptr %6, align 4
  %40 = call zeroext i8 @tvb_get_uint8(ptr noundef %1, i32 noundef %39)
  %41 = load i32, ptr @hf_opcua_extobj_mask, align 4
  %42 = load i32, ptr @ett_opcua_extensionobject_encodingmask, align 4
  %43 = call ptr @proto_tree_add_bitmask(ptr noundef %10, ptr noundef %1, i32 noundef %39, i32 noundef %41, i32 noundef %42, ptr noundef nonnull @parseExtensionObject.extobj_mask, i32 noundef -2147483648)
  %44 = add i32 %39, 1
  store i32 %44, ptr %6, align 4
  %45 = and i8 %40, 1
  %.not = icmp eq i8 %45, 0
  br i1 %.not, label %47, label %46

46:                                               ; preds = %getExtensionObjectType.exit
  call void @dispatchExtensionObjectType(ptr noundef %10, ptr noundef %1, ptr noundef %2, ptr noundef nonnull %6, i32 noundef %.0.i)
  %.pre = load i32, ptr %6, align 4
  br label %47

47:                                               ; preds = %46, %getExtensionObjectType.exit
  %48 = phi i32 [ %.pre, %46 ], [ %44, %getExtensionObjectType.exit ]
  %49 = load ptr, ptr %7, align 8
  call void @proto_item_set_end(ptr noundef %49, ptr noundef %1, i32 noundef %48)
  %50 = load i32, ptr %6, align 4
  store i32 %50, ptr %3, align 4
  %51 = load ptr, ptr %11, align 8
  %52 = load i32, ptr @proto_opcua, align 4
  %53 = and i64 %15, 127
  %54 = inttoptr i64 %53 to ptr
  call void @p_add_proto_data(ptr noundef %51, ptr noundef %2, i32 noundef %52, i32 noundef 0, ptr noundef %54)
  br label %55

55:                                               ; preds = %47, %18
  call void @llvm.lifetime.end.p0(i64 8, ptr nonnull %7) #4
  call void @llvm.lifetime.end.p0(i64 4, ptr nonnull %6) #4
  ret void
}